; Function Attrs: mustprogress nounwind uwtable
define void @_ZN6icu_7518AnnualTimeZoneRuleD2Ev(ptr noundef nonnull align 8 dereferenceable(96) %this) unnamed_addr #3 align 2 {
entry:
  store ptr getelementptr inbounds ({ [13 x ptr] }, ptr @_ZTVN6icu_7518AnnualTimeZoneRuleE, i64 0, i32 0, i64 2), ptr %this, align 8
  %fDateTimeRule = getelementptr inbounds i8, ptr %this, i64 80
  %0 = load ptr, ptr %fDateTimeRule, align 8
  %isnull = icmp eq ptr %0, null
  br i1 %isnull, label %delete.end, label %delete.notnull

delete.notnull:                                   ; preds = %entry
  %vtable = load ptr, ptr %0, align 8
  %vfn = getelementptr inbounds i8, ptr %vtable, i64 8
  %1 = load ptr, ptr %vfn, align 8
  tail call void %1(ptr noundef nonnull align 8 dereferenceable(36) %0) #16
  br label %delete.end

delete.end:                                       ; preds = %delete.notnull, %entry
  store ptr getelementptr inbounds ({ [13 x ptr] }, ptr @_ZTVN6icu_7512TimeZoneRuleE, i64 0, i32 0, i64 2), ptr %this, align 8
  %fName.i = getelementptr inbounds i8, ptr %this, i64 8
  tail call void @_ZN6icu_7513UnicodeStringD1Ev(ptr noundef nonnull align 8 dereferenceable(64) %fName.i) #16
  tail call void @_ZN6icu_757UObjectD2Ev(ptr noundef nonnull align 8 dereferenceable(8) %this) #16
  ret void
}